; ModuleID = '8/903.c'
source_filename = "8/903.c"
target datalayout = "e-m:e-p270:32:32-p271:32:32-p272:64:64-i64:64-f80:128-n8:16:32:64-S128"
target triple = "x86_64-pc-linux-gnu"

@.str = private unnamed_addr constant [5 x i8] c"%d%d\00", align 1
@.str.1 = private unnamed_addr constant [3 x i8] c"%d\00", align 1
@.str.2 = private unnamed_addr constant [4 x i8] c" %d\00", align 1

; Function Attrs: noinline nounwind uwtable
define dso_local void @a() #0 {
  %1 = alloca [100 x i32], align 16
  %2 = alloca [100 x i32], align 16
  %3 = alloca [200 x i32], align 16
  %4 = alloca i32, align 4
  %5 = alloca i32, align 4
  %6 = alloca i32, align 4
  %7 = alloca i32, align 4
  %8 = alloca i32, align 4
  %9 = call i32 (i8*, ...) @__isoc99_scanf(i8* getelementptr inbounds ([5 x i8], [5 x i8]* @.str, i64 0, i64 0), i32* %7, i32* %8)
  store i32 0, i32* %4, align 4
  br label %10

10:                                               ; preds = %19, %0
  %11 = load i32, i32* %4, align 4
  %12 = load i32, i32* %7, align 4
  %13 = icmp slt i32 %11, %12
  br i1 %13, label %14, label %22

14:                                               ; preds = %10
  %15 = load i32, i32* %4, align 4
  %16 = sext i32 %15 to i64
  %17 = getelementptr inbounds [100 x i32], [100 x i32]* %1, i64 0, i64 %16
  %18 = call i32 (i8*, ...) @__isoc99_scanf(i8* getelementptr inbounds ([3 x i8], [3 x i8]* @.str.1, i64 0, i64 0), i32* %17)
  br label %19

19:                                               ; preds = %14
  %20 = load i32, i32* %4, align 4
  %21 = add nsw i32 %20, 1
  store i32 %21, i32* %4, align 4
  br label %10

22:                                               ; preds = %10
  store i32 0, i32* %4, align 4
  br label %23

23:                                               ; preds = %32, %22
  %24 = load i32, i32* %4, align 4
  %25 = load i32, i32* %8, align 4
  %26 = icmp slt i32 %24, %25
  br i1 %26, label %27, label %35

27:                                               ; preds = %23
  %28 = load i32, i32* %4, align 4
  %29 = sext i32 %28 to i64
  %30 = getelementptr inbounds [100 x i32], [100 x i32]* %2, i64 0, i64 %29
  %31 = call i32 (i8*, ...) @__isoc99_scanf(i8* getelementptr inbounds ([3 x i8], [3 x i8]* @.str.1, i64 0, i64 0), i32* %30)
  br label %32

32:                                               ; preds = %27
  %33 = load i32, i32* %4, align 4
  %34 = add nsw i32 %33, 1
  store i32 %34, i32* %4, align 4
  br label %23

35:                                               ; preds = %23
  store i32 1, i32* %4, align 4
  br label %36

36:                                               ; preds = %81, %35
  %37 = load i32, i32* %4, align 4
  %38 = load i32, i32* %7, align 4
  %39 = icmp slt i32 %37, %38
  br i1 %39, label %40, label %84

40:                                               ; preds = %36
  store i32 0, i32* %5, align 4
  br label %41

41:                                               ; preds = %77, %40
  %42 = load i32, i32* %5, align 4
  %43 = load i32, i32* %7, align 4
  %44 = load i32, i32* %4, align 4
  %45 = sub nsw i32 %43, %44
  %46 = icmp slt i32 %42, %45
  br i1 %46, label %47, label %80

47:                                               ; preds = %41
  %48 = load i32, i32* %5, align 4
  %49 = sext i32 %48 to i64
  %50 = getelementptr inbounds [100 x i32], [100 x i32]* %1, i64 0, i64 %49
  %51 = load i32, i32* %50, align 4
  %52 = load i32, i32* %5, align 4
  %53 = add nsw i32 %52, 1
  %54 = sext i32 %53 to i64
  %55 = getelementptr inbounds [100 x i32], [100 x i32]* %1, i64 0, i64 %54
  %56 = load i32, i32* %55, align 4
  %57 = icmp sgt i32 %51, %56
  br i1 %57, label %58, label %76

58:                                               ; preds = %47
  %59 = load i32, i32* %5, align 4
  %60 = add nsw i32 %59, 1
  %61 = sext i32 %60 to i64
  %62 = getelementptr inbounds [100 x i32], [100 x i32]* %1, i64 0, i64 %61
  %63 = load i32, i32* %62, align 4
  store i32 %63, i32* %6, align 4
  %64 = load i32, i32* %5, align 4
  %65 = sext i32 %64 to i64
  %66 = getelementptr inbounds [100 x i32], [100 x i32]* %1, i64 0, i64 %65
  %67 = load i32, i32* %66, align 4
  %68 = load i32, i32* %5, align 4
  %69 = add nsw i32 %68, 1
  %70 = sext i32 %69 to i64
  %71 = getelementptr inbounds [100 x i32], [100 x i32]* %1, i64 0, i64 %70
  store i32 %67, i32* %71, align 4
  %72 = load i32, i32* %6, align 4
  %73 = load i32, i32* %5, align 4
  %74 = sext i32 %73 to i64
  %75 = getelementptr inbounds [100 x i32], [100 x i32]* %1, i64 0, i64 %74
  store i32 %72, i32* %75, align 4
  br label %76

76:                                               ; preds = %58, %47
  br label %77

77:                                               ; preds = %76
  %78 = load i32, i32* %5, align 4
  %79 = add nsw i32 %78, 1
  store i32 %79, i32* %5, align 4
  br label %41

80:                                               ; preds = %41
  br label %81

81:                                               ; preds = %80
  %82 = load i32, i32* %4, align 4
  %83 = add nsw i32 %82, 1
  store i32 %83, i32* %4, align 4
  br label %36

84:                                               ; preds = %36
  store i32 1, i32* %4, align 4
  br label %85

85:                                               ; preds = %130, %84
  %86 = load i32, i32* %4, align 4
  %87 = load i32, i32* %8, align 4
  %88 = icmp slt i32 %86, %87
  br i1 %88, label %89, label %133

89:                                               ; preds = %85
  store i32 0, i32* %5, align 4
  br label %90

90:                                               ; preds = %126, %89
  %91 = load i32, i32* %5, align 4
  %92 = load i32, i32* %8, align 4
  %93 = load i32, i32* %4, align 4
  %94 = sub nsw i32 %92, %93
  %95 = icmp slt i32 %91, %94
  br i1 %95, label %96, label %129

96:                                               ; preds = %90
  %97 = load i32, i32* %5, align 4
  %98 = sext i32 %97 to i64
  %99 = getelementptr inbounds [100 x i32], [100 x i32]* %2, i64 0, i64 %98
  %100 = load i32, i32* %99, align 4
  %101 = load i32, i32* %5, align 4
  %102 = add nsw i32 %101, 1
  %103 = sext i32 %102 to i64
  %104 = getelementptr inbounds [100 x i32], [100 x i32]* %2, i64 0, i64 %103
  %105 = load i32, i32* %104, align 4
  %106 = icmp sgt i32 %100, %105
  br i1 %106, label %107, label %125

107:                                              ; preds = %96
  %108 = load i32, i32* %5, align 4
  %109 = add nsw i32 %108, 1
  %110 = sext i32 %109 to i64
  %111 = getelementptr inbounds [100 x i32], [100 x i32]* %2, i64 0, i64 %110
  %112 = load i32, i32* %111, align 4
  store i32 %112, i32* %6, align 4
  %113 = load i32, i32* %5, align 4
  %114 = sext i32 %113 to i64
  %115 = getelementptr inbounds [100 x i32], [100 x i32]* %2, i64 0, i64 %114
  %116 = load i32, i32* %115, align 4
  %117 = load i32, i32* %5, align 4
  %118 = add nsw i32 %117, 1
  %119 = sext i32 %118 to i64
  %120 = getelementptr inbounds [100 x i32], [100 x i32]* %2, i64 0, i64 %119
  store i32 %116, i32* %120, align 4
  %121 = load i32, i32* %6, align 4
  %122 = load i32, i32* %5, align 4
  %123 = sext i32 %122 to i64
  %124 = getelementptr inbounds [100 x i32], [100 x i32]* %2, i64 0, i64 %123
  store i32 %121, i32* %124, align 4
  br label %125

125:                                              ; preds = %107, %96
  br label %126

126:                                              ; preds = %125
  %127 = load i32, i32* %5, align 4
  %128 = add nsw i32 %127, 1
  store i32 %128, i32* %5, align 4
  br label %90

129:                                              ; preds = %90
  br label %130

130:                                              ; preds = %129
  %131 = load i32, i32* %4, align 4
  %132 = add nsw i32 %131, 1
  store i32 %132, i32* %4, align 4
  br label %85

133:                                              ; preds = %85
  store i32 0, i32* %4, align 4
  br label %134

134:                                              ; preds = %146, %133
  %135 = load i32, i32* %4, align 4
  %136 = load i32, i32* %7, align 4
  %137 = icmp slt i32 %135, %136
  br i1 %137, label %138, label %149

138:                                              ; preds = %134
  %139 = load i32, i32* %4, align 4
  %140 = sext i32 %139 to i64
  %141 = getelementptr inbounds [100 x i32], [100 x i32]* %1, i64 0, i64 %140
  %142 = load i32, i32* %141, align 4
  %143 = load i32, i32* %4, align 4
  %144 = sext i32 %143 to i64
  %145 = getelementptr inbounds [200 x i32], [200 x i32]* %3, i64 0, i64 %144
  store i32 %142, i32* %145, align 4
  br label %146

146:                                              ; preds = %138
  %147 = load i32, i32* %4, align 4
  %148 = add nsw i32 %147, 1
  store i32 %148, i32* %4, align 4
  br label %134

149:                                              ; preds = %134
  store i32 0, i32* %4, align 4
  br label %150

150:                                              ; preds = %164, %149
  %151 = load i32, i32* %4, align 4
  %152 = load i32, i32* %8, align 4
  %153 = icmp slt i32 %151, %152
  br i1 %153, label %154, label %167

154:                                              ; preds = %150
  %155 = load i32, i32* %4, align 4
  %156 = sext i32 %155 to i64
  %157 = getelementptr inbounds [100 x i32], [100 x i32]* %2, i64 0, i64 %156
  %158 = load i32, i32* %157, align 4
  %159 = load i32, i32* %7, align 4
  %160 = load i32, i32* %4, align 4
  %161 = add nsw i32 %159, %160
  %162 = sext i32 %161 to i64
  %163 = getelementptr inbounds [200 x i32], [200 x i32]* %3, i64 0, i64 %162
  store i32 %158, i32* %163, align 4
  br label %164

164:                                              ; preds = %154
  %165 = load i32, i32* %4, align 4
  %166 = add nsw i32 %165, 1
  store i32 %166, i32* %4, align 4
  br label %150

167:                                              ; preds = %150
  store i32 0, i32* %4, align 4
  br label %168

168:                                              ; preds = %190, %167
  %169 = load i32, i32* %4, align 4
  %170 = load i32, i32* %7, align 4
  %171 = load i32, i32* %8, align 4
  %172 = add nsw i32 %170, %171
  %173 = icmp slt i32 %169, %172
  br i1 %173, label %174, label %193

174:                                              ; preds = %168
  %175 = load i32, i32* %4, align 4
  %176 = icmp eq i32 %175, 0
  br i1 %176, label %177, label %183

177:                                              ; preds = %174
  %178 = load i32, i32* %4, align 4
  %179 = sext i32 %178 to i64
  %180 = getelementptr inbounds [200 x i32], [200 x i32]* %3, i64 0, i64 %179
  %181 = load i32, i32* %180, align 4
  %182 = call i32 (i8*, ...) @printf(i8* getelementptr inbounds ([3 x i8], [3 x i8]* @.str.1, i64 0, i64 0), i32 %181)
  br label %189

183:                                              ; preds = %174
  %184 = load i32, i32* %4, align 4
  %185 = sext i32 %184 to i64
  %186 = getelementptr inbounds [200 x i32], [200 x i32]* %3, i64 0, i64 %185
  %187 = load i32, i32* %186, align 4
  %188 = call i32 (i8*, ...) @printf(i8* getelementptr inbounds ([4 x i8], [4 x i8]* @.str.2, i64 0, i64 0), i32 %187)
  br label %189

189:                                              ; preds = %183, %177
  br label %190

190:                                              ; preds = %189
  %191 = load i32, i32* %4, align 4
  %192 = add nsw i32 %191, 1
  store i32 %192, i32* %4, align 4
  br label %168

193:                                              ; preds = %168
  ret void
}

declare dso_local i32 @__isoc99_scanf(i8*, ...) #1

declare dso_local i32 @printf(i8*, ...) #1

; Function Attrs: noinline nounwind uwtable
define dso_local void @main() #0 {
  call void @a()
  ret void
}


!llvm.module.flags = !{!0}
!llvm.ident = !{!1}

!0 = !{i32 1, !"wchar_size", i32 4}
!1 = !{!"clang version 10.0.0-4ubuntu1 "}
